target datalayout = "e-m:e-p270:32:32-p271:32:32-p272:64:64-i64:64-i128:128-f80:128-n8:16:32:64-S128"
target triple = "x86_64-pc-linux-gnu"

%struct.darktable_t = type { %struct.dt_codepath_t, i32, i32, ptr, ptr, ptr, ptr, ptr, ptr, ptr, ptr, ptr, ptr, ptr, ptr, ptr, ptr, ptr, ptr, ptr, ptr, ptr, ptr, ptr, ptr, ptr, ptr, ptr, ptr, ptr, [64 x %struct.dt_pthread_mutex_t], %struct.dt_pthread_mutex_t, %struct.dt_pthread_mutex_t, %struct.dt_pthread_mutex_t, %struct.dt_pthread_mutex_t, %struct.dt_pthread_mutex_t, ptr, ptr, ptr, ptr, ptr, ptr, ptr, ptr, ptr, ptr, ptr, ptr, ptr, %struct.dt_lua_state_t, ptr, double, ptr, i32, [47 x i32], i32, i32, ptr, ptr, %struct.dt_sys_resources_t, %struct.dt_backthumb_t, %struct.dt_gimp_t }
%struct.dt_codepath_t = type { i8, [3 x i8] }
%struct.dt_pthread_mutex_t = type { %union.pthread_mutex_t }
%union.pthread_mutex_t = type { %struct.__pthread_mutex_s }
%struct.__pthread_mutex_s = type { i32, i32, i32, i32, i32, i16, i16, %struct.__pthread_internal_list }
%struct.__pthread_internal_list = type { ptr, ptr }
%struct.dt_lua_state_t = type { i32 }
%struct.dt_sys_resources_t = type { i64, i64, ptr, ptr, i32 }
%struct.dt_backthumb_t = type { double, double, i32, i32, i32, i32 }
%struct.dt_gimp_t = type { i32, ptr, ptr, i32, i32 }
%struct.dt_lib_module_info_t = type { ptr, i32, ptr, i32, ptr }

@darktable = external global %struct.darktable_t, align 8
@.str.2 = private unnamed_addr constant [41 x i8] c"[sql] %s:%d, function %s(): prepare \22%s\22\00", align 1
@.str.3 = private unnamed_addr constant [112 x i8] c"generated/home/dtcxzyw/WorkSpace/Projects/compilers/llvm-opt-benchmark/bench/darktable/darktable/src/libs/lib.c\00", align 1
@__FUNCTION__.dt_lib_get_active_preset_name = private unnamed_addr constant [30 x i8] c"dt_lib_get_active_preset_name\00", align 1
@.str.4 = private unnamed_addr constant [92 x i8] c"SELECT name, op_params, writeprotect FROM data.presets WHERE operation=?1 AND op_version=?2\00", align 1
@stderr = external global ptr, align 8
@.str.5 = private unnamed_addr constant [53 x i8] c"sqlite3 error: %s:%d, function %s(), query \22%s\22: %s\0A\00", align 1
@.str.6 = private unnamed_addr constant [41 x i8] c"sqlite3 error: %s:%d, function %s(): %s\0A\00", align 1

; Function Attrs: nounwind uwtable
define ptr @dt_lib_get_active_preset_name(ptr noundef %0) #0 {
  %2 = alloca ptr, align 8
  %3 = alloca ptr, align 8
  %4 = alloca i32, align 4
  %5 = alloca i32, align 4
  %6 = alloca i32, align 4
  %7 = alloca ptr, align 8
  %8 = alloca ptr, align 8
  %9 = alloca i32, align 4
  %10 = alloca i32, align 4
  store ptr %0, ptr %2, align 8, !tbaa !66
  call void @llvm.lifetime.start.p0(i64 8, ptr %3) #12
  br label %11

11:                                               ; preds = %1
  br label %12

12:                                               ; preds = %11
  %13 = load i32, ptr getelementptr inbounds nuw (%struct.darktable_t, ptr @darktable, i32 0, i32 2), align 8, !tbaa !21
  %14 = and i32 256, %13
  %15 = icmp ne i32 %14, 0
  br i1 %15, label %16, label %22

16:                                               ; preds = %12
  %17 = load i32, ptr getelementptr inbounds nuw (%struct.darktable_t, ptr @darktable, i32 0, i32 2), align 8, !tbaa !21
  %18 = xor i32 %17, -1
  %19 = and i32 0, %18
  %20 = icmp ne i32 %19, 0
  br i1 %20, label %22, label %21

21:                                               ; preds = %16
  call void (ptr, ...) @dt_print_ext(ptr noundef @.str.2, ptr noundef @.str.3, i32 noundef 85, ptr noundef @__FUNCTION__.dt_lib_get_active_preset_name, ptr noundef @.str.4)
  br label %22

22:                                               ; preds = %21, %16, %12
  br label %23

23:                                               ; preds = %22
  br label %24

24:                                               ; preds = %23
  call void @llvm.lifetime.start.p0(i64 4, ptr %4) #12
  %25 = load ptr, ptr getelementptr inbounds nuw (%struct.darktable_t, ptr @darktable, i32 0, i32 18), align 8, !tbaa !68
  %26 = call ptr @dt_database_get(ptr noundef %25)
  %27 = call i32 @sqlite3_prepare_v2(ptr noundef %26, ptr noundef @.str.4, i32 noundef -1, ptr noundef %3, ptr noundef null)
  store i32 %27, ptr %4, align 4, !tbaa !62
  %28 = load i32, ptr %4, align 4, !tbaa !62
  %29 = icmp ne i32 %28, 0
  br i1 %29, label %30, label %36

30:                                               ; preds = %24
  %31 = load ptr, ptr @stderr, align 8, !tbaa !69
  %32 = load ptr, ptr getelementptr inbounds nuw (%struct.darktable_t, ptr @darktable, i32 0, i32 18), align 8, !tbaa !68
  %33 = call ptr @dt_database_get(ptr noundef %32)
  %34 = call ptr @sqlite3_errmsg(ptr noundef %33)
  %35 = call i32 (ptr, ptr, ...) @fprintf(ptr noundef %31, ptr noundef @.str.5, ptr noundef @.str.3, i32 noundef 85, ptr noundef @__FUNCTION__.dt_lib_get_active_preset_name, ptr noundef @.str.4, ptr noundef %34) #12
  br label %36

36:                                               ; preds = %30, %24
  call void @llvm.lifetime.end.p0(i64 4, ptr %4) #12
  br label %37

37:                                               ; preds = %36
  br label %38

38:                                               ; preds = %37
  call void @llvm.lifetime.start.p0(i64 4, ptr %5) #12
  %39 = load ptr, ptr %3, align 8, !tbaa !71
  %40 = load ptr, ptr %2, align 8, !tbaa !66
  %41 = getelementptr inbounds nuw %struct.dt_lib_module_info_t, ptr %40, i32 0, i32 0
  %42 = load ptr, ptr %41, align 8, !tbaa !73
  %43 = call i32 @sqlite3_bind_text(ptr noundef %39, i32 noundef 1, ptr noundef %42, i32 noundef -1, ptr noundef inttoptr (i64 -1 to ptr))
  store i32 %43, ptr %5, align 4, !tbaa !62
  %44 = load i32, ptr %5, align 4, !tbaa !62
  %45 = icmp ne i32 %44, 0
  br i1 %45, label %46, label %52

46:                                               ; preds = %38
  %47 = load ptr, ptr @stderr, align 8, !tbaa !69
  %48 = load ptr, ptr getelementptr inbounds nuw (%struct.darktable_t, ptr @darktable, i32 0, i32 18), align 8, !tbaa !68
  %49 = call ptr @dt_database_get(ptr noundef %48)
  %50 = call ptr @sqlite3_errmsg(ptr noundef %49)
  %51 = call i32 (ptr, ptr, ...) @fprintf(ptr noundef %47, ptr noundef @.str.6, ptr noundef @.str.3, i32 noundef 87, ptr noundef @__FUNCTION__.dt_lib_get_active_preset_name, ptr noundef %50) #12
  br label %52

52:                                               ; preds = %46, %38
  call void @llvm.lifetime.end.p0(i64 4, ptr %5) #12
  call void @llvm.lifetime.start.p0(i64 4, ptr %6) #12
  %53 = load ptr, ptr %3, align 8, !tbaa !71
  %54 = load ptr, ptr %2, align 8, !tbaa !66
  %55 = getelementptr inbounds nuw %struct.dt_lib_module_info_t, ptr %54, i32 0, i32 1
  %56 = load i32, ptr %55, align 8, !tbaa !75
  %57 = call i32 @sqlite3_bind_int(ptr noundef %53, i32 noundef 2, i32 noundef %56)
  store i32 %57, ptr %6, align 4, !tbaa !62
  %58 = load i32, ptr %6, align 4, !tbaa !62
  %59 = icmp ne i32 %58, 0
  br i1 %59, label %60, label %66

60:                                               ; preds = %52
  %61 = load ptr, ptr @stderr, align 8, !tbaa !69
  %62 = load ptr, ptr getelementptr inbounds nuw (%struct.darktable_t, ptr @darktable, i32 0, i32 18), align 8, !tbaa !68
  %63 = call ptr @dt_database_get(ptr noundef %62)
  %64 = call ptr @sqlite3_errmsg(ptr noundef %63)
  %65 = call i32 (ptr, ptr, ...) @fprintf(ptr noundef %61, ptr noundef @.str.6, ptr noundef @.str.3, i32 noundef 88, ptr noundef @__FUNCTION__.dt_lib_get_active_preset_name, ptr noundef %64) #12
  br label %66

66:                                               ; preds = %60, %52
  call void @llvm.lifetime.end.p0(i64 4, ptr %6) #12
  call void @llvm.lifetime.start.p0(i64 8, ptr %7) #12
  store ptr null, ptr %7, align 8, !tbaa !63
  br label %67

67:                                               ; preds = %97, %66
  %68 = load ptr, ptr %3, align 8, !tbaa !71
  %69 = call i32 @sqlite3_step(ptr noundef %68)
  %70 = icmp eq i32 %69, 100
  br i1 %70, label %71, label %98

71:                                               ; preds = %67
  call void @llvm.lifetime.start.p0(i64 8, ptr %8) #12
  %72 = load ptr, ptr %3, align 8, !tbaa !71
  %73 = call ptr @sqlite3_column_blob(ptr noundef %72, i32 noundef 1)
  store ptr %73, ptr %8, align 8, !tbaa !76
  call void @llvm.lifetime.start.p0(i64 4, ptr %9) #12
  %74 = load ptr, ptr %3, align 8, !tbaa !71
  %75 = call i32 @sqlite3_column_bytes(ptr noundef %74, i32 noundef 1)
  store i32 %75, ptr %9, align 4, !tbaa !62
  %76 = load i32, ptr %9, align 4, !tbaa !62
  %77 = load ptr, ptr %2, align 8, !tbaa !66
  %78 = getelementptr inbounds nuw %struct.dt_lib_module_info_t, ptr %77, i32 0, i32 3
  %79 = load i32, ptr %78, align 8, !tbaa !77
  %80 = icmp eq i32 %76, %79
  br i1 %80, label %81, label %94

81:                                               ; preds = %71
  %82 = load ptr, ptr %2, align 8, !tbaa !66
  %83 = getelementptr inbounds nuw %struct.dt_lib_module_info_t, ptr %82, i32 0, i32 2
  %84 = load ptr, ptr %83, align 8, !tbaa !78
  %85 = load ptr, ptr %8, align 8, !tbaa !76
  %86 = load i32, ptr %9, align 4, !tbaa !62
  %87 = sext i32 %86 to i64
  %88 = call i32 @memcmp(ptr noundef %84, ptr noundef %85, i64 noundef %87) #13
  %89 = icmp ne i32 %88, 0
  br i1 %89, label %94, label %90

90:                                               ; preds = %81
  %91 = load ptr, ptr %3, align 8, !tbaa !71
  %92 = call ptr @sqlite3_column_text(ptr noundef %91, i32 noundef 0)
  %93 = call noalias ptr @g_strdup(ptr noundef %92)
  store ptr %93, ptr %7, align 8, !tbaa !63
  store i32 7, ptr %10, align 4
  br label %95

94:                                               ; preds = %81, %71
  store i32 0, ptr %10, align 4
  br label %95

95:                                               ; preds = %94, %90
  call void @llvm.lifetime.end.p0(i64 4, ptr %9) #12
  call void @llvm.lifetime.end.p0(i64 8, ptr %8) #12
  %96 = load i32, ptr %10, align 4
  switch i32 %96, label %102 [
    i32 0, label %97
    i32 7, label %98
  ]

97:                                               ; preds = %95
  br label %67

98:                                               ; preds = %95, %67
  %99 = load ptr, ptr %3, align 8, !tbaa !71
  %100 = call i32 @sqlite3_finalize(ptr noundef %99)
  %101 = load ptr, ptr %7, align 8, !tbaa !63
  store i32 1, ptr %10, align 4
  call void @llvm.lifetime.end.p0(i64 8, ptr %7) #12
  call void @llvm.lifetime.end.p0(i64 8, ptr %3) #12
  ret ptr %101

102:                                              ; preds = %95
  unreachable
}