; Function Attrs: nounwind uwtable
define noalias ptr @dt_lib_get_active_preset_name(ptr noundef readonly captures(none) %0) local_unnamed_addr #0 {
  %2 = alloca ptr, align 8
  call void @llvm.lifetime.start.p0(i64 8, ptr nonnull %2) #19
  %3 = load i32, ptr getelementptr inbounds nuw (i8, ptr @darktable, i64 8), align 8, !tbaa !59
  %4 = and i32 %3, 256
  %.not = icmp eq i32 %4, 0
  br i1 %.not, label %6, label %5

5:                                                ; preds = %1
  tail call void (ptr, ...) @dt_print_ext(ptr noundef nonnull @.str.2, ptr noundef nonnull @.str.3, i32 noundef 85, ptr noundef nonnull @__FUNCTION__.dt_lib_get_active_preset_name, ptr noundef nonnull @.str.4) #19
  br label %6

6:                                                ; preds = %5, %1
  %7 = load ptr, ptr getelementptr inbounds nuw (i8, ptr @darktable, i64 136), align 8, !tbaa !60
  %8 = tail call ptr @dt_database_get(ptr noundef %7) #19
  %9 = call i32 @sqlite3_prepare_v2(ptr noundef %8, ptr noundef nonnull @.str.4, i32 noundef -1, ptr noundef nonnull %2, ptr noundef null) #19
  %.not13 = icmp eq i32 %9, 0
  br i1 %.not13, label %16, label %10

10:                                               ; preds = %6
  %11 = load ptr, ptr @stderr, align 8, !tbaa !61
  %12 = load ptr, ptr getelementptr inbounds nuw (i8, ptr @darktable, i64 136), align 8, !tbaa !60
  %13 = call ptr @dt_database_get(ptr noundef %12) #19
  %14 = call ptr @sqlite3_errmsg(ptr noundef %13) #19
  %15 = call i32 (ptr, ptr, ...) @fprintf(ptr noundef %11, ptr noundef nonnull @.str.5, ptr noundef nonnull @.str.3, i32 noundef 85, ptr noundef nonnull @__FUNCTION__.dt_lib_get_active_preset_name, ptr noundef nonnull @.str.4, ptr noundef %14) #20
  br label %16

16:                                               ; preds = %10, %6
  %17 = load ptr, ptr %2, align 8, !tbaa !63
  %18 = load ptr, ptr %0, align 8, !tbaa !65
  %19 = call i32 @sqlite3_bind_text(ptr noundef %17, i32 noundef 1, ptr noundef %18, i32 noundef -1, ptr noundef nonnull inttoptr (i64 -1 to ptr)) #19
  %.not14 = icmp eq i32 %19, 0
  br i1 %.not14, label %26, label %20

20:                                               ; preds = %16
  %21 = load ptr, ptr @stderr, align 8, !tbaa !61
  %22 = load ptr, ptr getelementptr inbounds nuw (i8, ptr @darktable, i64 136), align 8, !tbaa !60
  %23 = call ptr @dt_database_get(ptr noundef %22) #19
  %24 = call ptr @sqlite3_errmsg(ptr noundef %23) #19
  %25 = call i32 (ptr, ptr, ...) @fprintf(ptr noundef %21, ptr noundef nonnull @.str.6, ptr noundef nonnull @.str.3, i32 noundef 87, ptr noundef nonnull @__FUNCTION__.dt_lib_get_active_preset_name, ptr noundef %24) #20
  br label %26

26:                                               ; preds = %20, %16
  %27 = load ptr, ptr %2, align 8, !tbaa !63
  %28 = getelementptr inbounds nuw i8, ptr %0, i64 8
  %29 = load i32, ptr %28, align 8, !tbaa !68
  %30 = call i32 @sqlite3_bind_int(ptr noundef %27, i32 noundef 2, i32 noundef %29) #19
  %.not15 = icmp eq i32 %30, 0
  br i1 %.not15, label %37, label %31

31:                                               ; preds = %26
  %32 = load ptr, ptr @stderr, align 8, !tbaa !61
  %33 = load ptr, ptr getelementptr inbounds nuw (i8, ptr @darktable, i64 136), align 8, !tbaa !60
  %34 = call ptr @dt_database_get(ptr noundef %33) #19
  %35 = call ptr @sqlite3_errmsg(ptr noundef %34) #19
  %36 = call i32 (ptr, ptr, ...) @fprintf(ptr noundef %32, ptr noundef nonnull @.str.6, ptr noundef nonnull @.str.3, i32 noundef 88, ptr noundef nonnull @__FUNCTION__.dt_lib_get_active_preset_name, ptr noundef %35) #20
  br label %37

37:                                               ; preds = %31, %26
  %38 = load ptr, ptr %2, align 8, !tbaa !63
  %39 = call i32 @sqlite3_step(ptr noundef %38) #19
  %40 = icmp eq i32 %39, 100
  br i1 %40, label %.lr.ph, label %.loopexit

.lr.ph:                                           ; preds = %37
  %41 = getelementptr inbounds nuw i8, ptr %0, i64 24
  %42 = getelementptr inbounds nuw i8, ptr %0, i64 16
  br label %43

43:                                               ; preds = %.lr.ph, %56
  %44 = load ptr, ptr %2, align 8, !tbaa !63
  %45 = call ptr @sqlite3_column_blob(ptr noundef %44, i32 noundef 1) #19
  %46 = load ptr, ptr %2, align 8, !tbaa !63
  %47 = call i32 @sqlite3_column_bytes(ptr noundef %46, i32 noundef 1) #19
  %48 = load i32, ptr %41, align 8, !tbaa !69
  %49 = icmp eq i32 %47, %48
  br i1 %49, label %50, label %56

50:                                               ; preds = %43
  %51 = load ptr, ptr %42, align 8, !tbaa !70
  %52 = sext i32 %47 to i64
  %bcmp = call i32 @bcmp(ptr %51, ptr %45, i64 %52)
  %.not16 = icmp eq i32 %bcmp, 0
  br i1 %.not16, label %.thread, label %56

.thread:                                          ; preds = %50
  %53 = load ptr, ptr %2, align 8, !tbaa !63
  %54 = call ptr @sqlite3_column_text(ptr noundef %53, i32 noundef 0) #19
  %55 = call noalias ptr @g_strdup(ptr noundef %54) #19
  br label %.loopexit

56:                                               ; preds = %43, %50
  %57 = load ptr, ptr %2, align 8, !tbaa !63
  %58 = call i32 @sqlite3_step(ptr noundef %57) #19
  %59 = icmp eq i32 %58, 100
  br i1 %59, label %43, label %.loopexit

.loopexit:                                        ; preds = %56, %37, %.thread
  %.1 = phi ptr [ %55, %.thread ], [ null, %37 ], [ null, %56 ]
  %60 = load ptr, ptr %2, align 8, !tbaa !63
  %61 = call i32 @sqlite3_finalize(ptr noundef %60) #19
  call void @llvm.lifetime.end.p0(i64 8, ptr nonnull %2) #19
  ret ptr %.1
}